target datalayout = "e-m:e-p270:32:32-p271:32:32-p272:64:64-i64:64-i128:128-f80:128-n8:16:32:64-S128"
target triple = "x86_64-pc-linux-gnu"

; Function Attrs: nounwind sspstrong uwtable
define internal i32 @cp949_is_allowed_reverse_match(ptr noundef %0, ptr noundef %1, ptr noundef %2) #0 {
  %4 = alloca ptr, align 8
  %5 = alloca ptr, align 8
  %6 = alloca ptr, align 8
  %7 = alloca i8, align 1
  store ptr %0, ptr %4, align 8, !tbaa !13
  store ptr %1, ptr %5, align 8, !tbaa !13
  store ptr %2, ptr %6, align 8, !tbaa !14
  call void @llvm.lifetime.start.p0(i64 1, ptr %7) #3
  %8 = load ptr, ptr %4, align 8, !tbaa !13
  %9 = load i8, ptr %8, align 1, !tbaa !16
  store i8 %9, ptr %7, align 1, !tbaa !16
  %10 = load i8, ptr %7, align 1, !tbaa !16
  %11 = zext i8 %10 to i64
  %12 = getelementptr inbounds nuw [256 x i8], ptr @CP949_CAN_BE_TRAIL_TABLE, i64 0, i64 %11
  %13 = load i8, ptr %12, align 1, !tbaa !16
  %14 = sext i8 %13 to i32
  %15 = icmp ne i32 %14, 0
  %16 = select i1 %15, i32 0, i32 1
  call void @llvm.lifetime.end.p0(i64 1, ptr %7) #3
  ret i32 %16
}