; Function Attrs: mustprogress nofree norecurse nosync nounwind sspstrong willreturn memory(argmem: read) uwtable
define internal range(i32 0, 2) i32 @cp949_is_allowed_reverse_match(ptr noundef readonly captures(none) %0, ptr readnone captures(none) %1, ptr readnone captures(none) %2) #2 {
  %4 = load i8, ptr %0, align 1, !tbaa !6
  %5 = zext i8 %4 to i64
  %6 = getelementptr inbounds nuw [256 x i8], ptr @CP949_CAN_BE_TRAIL_TABLE, i64 0, i64 %5
  %7 = load i8, ptr %6, align 1, !tbaa !6
  %.not = icmp eq i8 %7, 0
  %8 = zext i1 %.not to i32
  ret i32 %8
}